target datalayout = "e-m:e-p270:32:32-p271:32:32-p272:64:64-i64:64-i128:128-f80:128-n8:16:32:64-S128"
target triple = "x86_64-pc-linux-gnu"

%"class.Imath_3_2::half" = type { i16 }
%union.imath_half_uif = type { i32 }

@imath_half_to_float_table = external global ptr, align 8

; Function Attrs: noinline noreturn nounwind uwtable
define linkonce_odr hidden void @__clang_call_terminate(ptr noundef %0) #8 comdat {
  %2 = call ptr @__cxa_begin_catch(ptr %0) #3
  call void @_ZSt9terminatev() #10
  unreachable
}

; Function Attrs: inlinehint mustprogress nounwind uwtable
define internal noundef float @_ZL19imath_half_to_floatt(i16 noundef zeroext %0) #5 {
  %2 = alloca i16, align 2
  store i16 %0, ptr %2, align 2, !tbaa !16
  %3 = load ptr, ptr @imath_half_to_float_table, align 8, !tbaa !17
  %4 = load i16, ptr %2, align 2, !tbaa !16
  %5 = zext i16 %4 to i64
  %6 = getelementptr inbounds nuw %union.imath_half_uif, ptr %3, i64 %5
  %7 = load float, ptr %6, align 4, !tbaa !13
  ret float %7
}

; Function Attrs: inlinehint mustprogress nounwind uwtable
define linkonce_odr hidden noundef zeroext i16 @_ZNK9Imath_3_24half8mantissaEv(ptr noundef nonnull align 2 dereferenceable(2) %0) #5 comdat align 2 {
  %2 = alloca ptr, align 8
  store ptr %0, ptr %2, align 8, !tbaa !3
  %3 = load ptr, ptr %2, align 8
  %4 = getelementptr inbounds nuw %"class.Imath_3_2::half", ptr %3, i32 0, i32 0
  %5 = load i16, ptr %4, align 2, !tbaa !8
  %6 = zext i16 %5 to i32
  %7 = and i32 %6, 1023
  %8 = trunc i32 %7 to i16
  ret i16 %8
}

; Function Attrs: inlinehint mustprogress nounwind uwtable
define linkonce_odr hidden noundef zeroext i16 @_ZNK9Imath_3_24half8exponentEv(ptr noundef nonnull align 2 dereferenceable(2) %0) #5 comdat align 2 {
  %2 = alloca ptr, align 8
  store ptr %0, ptr %2, align 8, !tbaa !3
  %3 = load ptr, ptr %2, align 8
  %4 = getelementptr inbounds nuw %"class.Imath_3_2::half", ptr %3, i32 0, i32 0
  %5 = load i16, ptr %4, align 2, !tbaa !8
  %6 = zext i16 %5 to i32
  %7 = ashr i32 %6, 10
  %8 = and i32 %7, 31
  %9 = trunc i32 %8 to i16
  ret i16 %9
}

; Function Attrs: inlinehint mustprogress nounwind uwtable
define linkonce_odr hidden noundef float @_ZNK9Imath_3_24halfcvfEv(ptr noundef nonnull align 2 dereferenceable(2) %0) #5 comdat align 2 personality ptr @__gxx_personality_v0 {
  %2 = alloca ptr, align 8
  store ptr %0, ptr %2, align 8, !tbaa !3
  %3 = load ptr, ptr %2, align 8
  %4 = getelementptr inbounds nuw %"class.Imath_3_2::half", ptr %3, i32 0, i32 0
  %5 = load i16, ptr %4, align 2, !tbaa !8
  %6 = invoke noundef float @_ZL19imath_half_to_floatt(i16 noundef zeroext %5)
          to label %7 unwind label %8

7:                                                ; preds = %1
  ret float %6

8:                                                ; preds = %1
  %9 = landingpad { ptr, i32 }
          catch ptr null
  %10 = extractvalue { ptr, i32 } %9, 0
  call void @__clang_call_terminate(ptr %10) #10
  unreachable
}

; Function Attrs: mustprogress nounwind uwtable
define linkonce_odr hidden noundef i32 @_ZNSt14numeric_limitsIjE3maxEv() #4 comdat align 2 {
  ret i32 -1
}

; Function Attrs: inlinehint mustprogress nounwind uwtable
define linkonce_odr hidden noundef zeroext i1 @_ZNK9Imath_3_24half10isInfinityEv(ptr noundef nonnull align 2 dereferenceable(2) %0) #5 comdat align 2 {
  %2 = alloca ptr, align 8
  store ptr %0, ptr %2, align 8, !tbaa !3
  %3 = load ptr, ptr %2, align 8
  %4 = call noundef zeroext i16 @_ZNK9Imath_3_24half8exponentEv(ptr noundef nonnull align 2 dereferenceable(2) %3) #3
  %5 = zext i16 %4 to i32
  %6 = icmp eq i32 %5, 31
  br i1 %6, label %7, label %11

7:                                                ; preds = %1
  %8 = call noundef zeroext i16 @_ZNK9Imath_3_24half8mantissaEv(ptr noundef nonnull align 2 dereferenceable(2) %3) #3
  %9 = zext i16 %8 to i32
  %10 = icmp eq i32 %9, 0
  br label %11

11:                                               ; preds = %7, %1
  %12 = phi i1 [ false, %1 ], [ %10, %7 ]
  ret i1 %12
}

; Function Attrs: inlinehint mustprogress nounwind uwtable
define linkonce_odr hidden noundef zeroext i1 @_ZNK9Imath_3_24half5isNanEv(ptr noundef nonnull align 2 dereferenceable(2) %0) #5 comdat align 2 {
  %2 = alloca ptr, align 8
  store ptr %0, ptr %2, align 8, !tbaa !3
  %3 = load ptr, ptr %2, align 8
  %4 = call noundef zeroext i16 @_ZNK9Imath_3_24half8exponentEv(ptr noundef nonnull align 2 dereferenceable(2) %3) #3
  %5 = zext i16 %4 to i32
  %6 = icmp eq i32 %5, 31
  br i1 %6, label %7, label %11

7:                                                ; preds = %1
  %8 = call noundef zeroext i16 @_ZNK9Imath_3_24half8mantissaEv(ptr noundef nonnull align 2 dereferenceable(2) %3) #3
  %9 = zext i16 %8 to i32
  %10 = icmp ne i32 %9, 0
  br label %11

11:                                               ; preds = %7, %1
  %12 = phi i1 [ false, %1 ], [ %10, %7 ]
  ret i1 %12
}

; Function Attrs: inlinehint mustprogress nounwind uwtable
define linkonce_odr hidden noundef zeroext i1 @_ZNK9Imath_3_24half10isNegativeEv(ptr noundef nonnull align 2 dereferenceable(2) %0) #5 comdat align 2 {
  %2 = alloca ptr, align 8
  store ptr %0, ptr %2, align 8, !tbaa !3
  %3 = load ptr, ptr %2, align 8
  %4 = getelementptr inbounds nuw %"class.Imath_3_2::half", ptr %3, i32 0, i32 0
  %5 = load i16, ptr %4, align 2, !tbaa !8
  %6 = zext i16 %5 to i32
  %7 = and i32 %6, 32768
  %8 = icmp ne i32 %7, 0
  ret i1 %8
}

; Function Attrs: mustprogress nounwind uwtable
define noundef i32 @_ZN7Imf_3_410halfToUintEN9Imath_3_24halfE(i16 %0) #4 {
  %2 = alloca i32, align 4
  %3 = alloca %"class.Imath_3_2::half", align 2
  %4 = getelementptr inbounds nuw %"class.Imath_3_2::half", ptr %3, i32 0, i32 0
  store i16 %0, ptr %4, align 2
  %5 = call noundef zeroext i1 @_ZNK9Imath_3_24half10isNegativeEv(ptr noundef nonnull align 2 dereferenceable(2) %3) #3
  br i1 %5, label %8, label %6

6:                                                ; preds = %1
  %7 = call noundef zeroext i1 @_ZNK9Imath_3_24half5isNanEv(ptr noundef nonnull align 2 dereferenceable(2) %3) #3
  br i1 %7, label %8, label %9

8:                                                ; preds = %6, %1
  store i32 0, ptr %2, align 4
  br label %16

9:                                                ; preds = %6
  %10 = call noundef zeroext i1 @_ZNK9Imath_3_24half10isInfinityEv(ptr noundef nonnull align 2 dereferenceable(2) %3) #3
  br i1 %10, label %11, label %13

11:                                               ; preds = %9
  %12 = call noundef i32 @_ZNSt14numeric_limitsIjE3maxEv() #3
  store i32 %12, ptr %2, align 4
  br label %16

13:                                               ; preds = %9
  %14 = call noundef float @_ZNK9Imath_3_24halfcvfEv(ptr noundef nonnull align 2 dereferenceable(2) %3) #3
  %15 = fptoui float %14 to i32
  store i32 %15, ptr %2, align 4
  br label %16

16:                                               ; preds = %13, %11, %8
  %17 = load i32, ptr %2, align 4
  ret i32 %17
}