; Function Attrs: mustprogress nofree norecurse nosync nounwind willreturn memory(read, inaccessiblemem: none) uwtable
define noundef i32 @_ZN7Imf_3_410halfToUintEN9Imath_3_24halfE(i16 %0) local_unnamed_addr #3 personality ptr @__gxx_personality_v0 {
  %2 = icmp slt i16 %0, 0
  br i1 %2, label %17, label %3

3:                                                ; preds = %1
  %4 = and i16 %0, 31744
  %5 = icmp eq i16 %4, 31744
  %6 = and i16 %0, 1023
  %7 = icmp ne i16 %6, 0
  %8 = and i1 %5, %7
  br i1 %8, label %17, label %9

9:                                                ; preds = %3
  %10 = icmp eq i16 %0, 31744
  br i1 %10, label %17, label %11

11:                                               ; preds = %9
  %12 = load ptr, ptr @imath_half_to_float_table, align 8, !tbaa !3
  %13 = zext nneg i16 %0 to i64
  %14 = getelementptr inbounds nuw %union.imath_half_uif, ptr %12, i64 %13
  %15 = load float, ptr %14, align 4, !tbaa !8
  %16 = fptoui float %15 to i32
  br label %17

17:                                               ; preds = %9, %1, %3, %11
  %.0 = phi i32 [ %16, %11 ], [ 0, %3 ], [ 0, %1 ], [ -1, %9 ]
  ret i32 %.0
}